; Function Attrs: mustprogress uwtable
define noundef zeroext i1 @_ZN9GPUShader7compileEv(ptr noundef nonnull align 8 dereferenceable(42) %0) local_unnamed_addr #3 align 2 {
  %2 = load ptr, ptr @__glewCompileShader, align 8
  %3 = getelementptr inbounds nuw i8, ptr %0, i64 36
  %4 = load i32, ptr %3, align 4
  tail call void %2(i32 noundef %4)
  %5 = getelementptr inbounds nuw i8, ptr %0, i64 40
  %6 = load i8, ptr %5, align 8
  %7 = trunc i8 %6 to i1
  br i1 %7, label %8, label %9

8:                                                ; preds = %1
  tail call void @_ZN9GPUShader12printInfoLogEv(ptr noundef nonnull align 8 dereferenceable(42) %0)
  br label %9

9:                                                ; preds = %8, %1
  ret i1 true
}